; Function Attrs: nounwind uwtable
define noundef ptr @Aig_ManRehash(ptr noundef %0) local_unnamed_addr #6 {
  %2 = getelementptr inbounds nuw i8, ptr %0, i64 32
  %3 = load ptr, ptr %2, align 8
  %4 = getelementptr i8, ptr %3, i64 4
  %.val23.i11 = load i32, ptr %4, align 4
  %5 = icmp sgt i32 %.val23.i11, 0
  br i1 %5, label %.lr.ph.i, label %Aig_ManRemapRepr.exit.thread

.lr.ph.i:                                         ; preds = %1, %42
  %6 = phi ptr [ %50, %42 ], [ %3, %1 ]
  %7 = phi ptr [ %44, %42 ], [ %2, %1 ]
  %.012 = phi ptr [ %43, %42 ], [ %0, %1 ]
  %8 = getelementptr i8, ptr %.012, i64 256
  br label %9

9:                                                ; preds = %Aig_ObjFindReprTransitive.exit.thread.i, %.lr.ph.i
  %.pre2728.i = phi ptr [ %6, %.lr.ph.i ], [ %.pre2729.i, %Aig_ObjFindReprTransitive.exit.thread.i ]
  %10 = phi ptr [ %6, %.lr.ph.i ], [ %38, %Aig_ObjFindReprTransitive.exit.thread.i ]
  %indvars.iv.i = phi i64 [ 0, %.lr.ph.i ], [ %indvars.iv.next.i, %Aig_ObjFindReprTransitive.exit.thread.i ]
  %.025.i = phi i32 [ 0, %.lr.ph.i ], [ %.1.i, %Aig_ObjFindReprTransitive.exit.thread.i ]
  %11 = getelementptr i8, ptr %10, i64 8
  %.val18.i = load ptr, ptr %11, align 8
  %12 = getelementptr inbounds nuw ptr, ptr %.val18.i, i64 %indvars.iv.i
  %13 = load ptr, ptr %12, align 8
  %14 = icmp eq ptr %13, null
  br i1 %14, label %Aig_ObjFindReprTransitive.exit.thread.i, label %15

15:                                               ; preds = %9
  %16 = getelementptr i8, ptr %13, i64 24
  %.val19.i = load i64, ptr %16, align 8
  %17 = trunc i64 %.val19.i to i32
  %18 = and i32 %17, 7
  %19 = add nsw i32 %18, -7
  %narrow.i.i = icmp ult i32 %19, -2
  br i1 %narrow.i.i, label %Aig_ObjFindReprTransitive.exit.thread.i, label %20

20:                                               ; preds = %15
  %.val20.i = load ptr, ptr %8, align 8
  %21 = getelementptr i8, ptr %13, i64 36
  %.val21.i = load i32, ptr %21, align 4
  %22 = sext i32 %.val21.i to i64
  %23 = getelementptr inbounds ptr, ptr %.val20.i, i64 %22
  %24 = load ptr, ptr %23, align 8
  %.not.i.i = icmp eq ptr %24, null
  br i1 %.not.i.i, label %Aig_ObjFindReprTransitive.exit.thread.i, label %.preheader.i.i

.preheader.i.i:                                   ; preds = %20, %.preheader.i.i
  %.1.i.i = phi ptr [ %28, %.preheader.i.i ], [ %24, %20 ]
  %25 = getelementptr i8, ptr %.1.i.i, i64 36
  %.1.val.i.i = load i32, ptr %25, align 4
  %26 = sext i32 %.1.val.i.i to i64
  %27 = getelementptr inbounds ptr, ptr %.val20.i, i64 %26
  %28 = load ptr, ptr %27, align 8
  %.not9.i.i = icmp eq ptr %28, null
  br i1 %.not9.i.i, label %Aig_ObjFindReprTransitive.exit.i, label %.preheader.i.i, !llvm.loop !11

Aig_ObjFindReprTransitive.exit.i:                 ; preds = %.preheader.i.i
  %29 = icmp eq ptr %13, %.1.i.i
  br i1 %29, label %Aig_ObjSetRepr_.exit.i, label %.sink.split.i.i

.sink.split.i.i:                                  ; preds = %Aig_ObjFindReprTransitive.exit.i
  %30 = icmp slt i32 %.val21.i, %.1.val.i.i
  %..i.i = tail call i32 @llvm.smax.i32(i32 %.val21.i, i32 %.1.val.i.i)
  %.16.i.i = select i1 %30, ptr %13, ptr %.1.i.i
  %31 = sext i32 %..i.i to i64
  %32 = getelementptr inbounds ptr, ptr %.val20.i, i64 %31
  store ptr %.16.i.i, ptr %32, align 8
  %.pre.i = load i64, ptr %16, align 8
  %.pre27.pre.i = load ptr, ptr %7, align 8
  br label %Aig_ObjSetRepr_.exit.i

Aig_ObjSetRepr_.exit.i:                           ; preds = %.sink.split.i.i, %Aig_ObjFindReprTransitive.exit.i
  %.pre27.i = phi ptr [ %.pre2728.i, %Aig_ObjFindReprTransitive.exit.i ], [ %.pre27.pre.i, %.sink.split.i.i ]
  %33 = phi i64 [ %.val19.i, %Aig_ObjFindReprTransitive.exit.i ], [ %.pre.i, %.sink.split.i.i ]
  %34 = and i64 %33, 4294967232
  %35 = icmp ne i64 %34, 0
  %36 = zext i1 %35 to i32
  %37 = add nsw i32 %.025.i, %36
  br label %Aig_ObjFindReprTransitive.exit.thread.i

Aig_ObjFindReprTransitive.exit.thread.i:          ; preds = %Aig_ObjSetRepr_.exit.i, %20, %15, %9
  %.pre2729.i = phi ptr [ %.pre2728.i, %9 ], [ %.pre27.i, %Aig_ObjSetRepr_.exit.i ], [ %.pre2728.i, %15 ], [ %.pre2728.i, %20 ]
  %38 = phi ptr [ %10, %9 ], [ %.pre27.i, %Aig_ObjSetRepr_.exit.i ], [ %10, %15 ], [ %10, %20 ]
  %.1.i = phi i32 [ %.025.i, %9 ], [ %37, %Aig_ObjSetRepr_.exit.i ], [ %.025.i, %15 ], [ %.025.i, %20 ]
  %indvars.iv.next.i = add nuw nsw i64 %indvars.iv.i, 1
  %39 = getelementptr i8, ptr %38, i64 4
  %.val.i = load i32, ptr %39, align 4
  %40 = sext i32 %.val.i to i64
  %41 = icmp slt i64 %indvars.iv.next.i, %40
  br i1 %41, label %9, label %Aig_ManRemapRepr.exit, !llvm.loop !12

Aig_ManRemapRepr.exit:                            ; preds = %Aig_ObjFindReprTransitive.exit.thread.i
  %.not = icmp eq i32 %.1.i, 0
  br i1 %.not, label %Aig_ManRemapRepr.exit.thread, label %42

42:                                               ; preds = %Aig_ManRemapRepr.exit
  %43 = tail call ptr @Aig_ManDupRepr(ptr noundef %.012, i32 noundef 1)
  %44 = getelementptr i8, ptr %43, i64 32
  %.val = load ptr, ptr %44, align 8
  %45 = getelementptr i8, ptr %.val, i64 4
  %.val.val = load i32, ptr %45, align 4
  %46 = getelementptr inbounds nuw i8, ptr %43, i64 264
  store i32 %.val.val, ptr %46, align 8
  %47 = sext i32 %.val.val to i64
  %48 = shl nsw i64 %47, 3
  %calloc.i = tail call ptr @calloc(i64 1, i64 %48)
  %49 = getelementptr inbounds nuw i8, ptr %43, i64 256
  store ptr %calloc.i, ptr %49, align 8
  tail call void @Aig_ManTransferRepr(ptr noundef %43, ptr noundef %.012)
  tail call void @Aig_ManStop(ptr noundef %.012) #18
  %50 = load ptr, ptr %44, align 8
  %51 = getelementptr i8, ptr %50, i64 4
  %.val23.i = load i32, ptr %51, align 4
  %52 = icmp sgt i32 %.val23.i, 0
  br i1 %52, label %.lr.ph.i, label %Aig_ManRemapRepr.exit.thread, !llvm.loop !14

Aig_ManRemapRepr.exit.thread:                     ; preds = %Aig_ManRemapRepr.exit, %42, %1
  %.0.lcssa = phi ptr [ %0, %1 ], [ %43, %42 ], [ %.012, %Aig_ManRemapRepr.exit ]
  ret ptr %.0.lcssa
}